target datalayout = "e-m:e-p270:32:32-p271:32:32-p272:64:64-i64:64-i128:128-f80:128-n8:16:32:64-S128"
target triple = "x86_64-pc-linux-gnu"

@SAVED_USER_ID = internal global i32 -1, align 4
@under_uid_switch = internal global i32 0, align 4
@rb_eRuntimeError = external global i64, align 8
@.str.228 = private unnamed_addr constant [76 x i8] c"can't handle UID while evaluating block given to Process::UID.switch method\00", align 1

; Function Attrs: nounwind sspstrong uwtable
define internal void @check_uid_switch() #0 {
  %1 = load i32, ptr @under_uid_switch, align 4, !tbaa !34
  %2 = icmp ne i32 %1, 0
  br i1 %2, label %3, label %5

3:                                                ; preds = %0
  %4 = load i64, ptr @rb_eRuntimeError, align 8, !tbaa !35
  call void (i64, ptr, ...) @rb_raise(i64 noundef %4, ptr noundef @.str.228) #30
  unreachable

5:                                                ; preds = %0
  ret void
}

; Function Attrs: nounwind sspstrong uwtable
define internal i32 @rb_seteuid_core(i32 noundef %0) #0 {
  %2 = alloca i32, align 4
  %3 = alloca i32, align 4
  %4 = alloca i32, align 4
  %5 = alloca i32, align 4
  store i32 %0, ptr %2, align 4, !tbaa !34
  call void @llvm.lifetime.start.p0(i64 4, ptr %3) #27
  call void @check_uid_switch()
  %6 = call i32 @getuid() #27
  store i32 %6, ptr %3, align 4, !tbaa !34
  %7 = load i32, ptr %3, align 4, !tbaa !34
  %8 = load i32, ptr %2, align 4, !tbaa !34
  %9 = icmp ne i32 %7, %8
  br i1 %9, label %10, label %24

10:                                               ; preds = %1
  %11 = load i32, ptr %2, align 4, !tbaa !34
  %12 = load i32, ptr %2, align 4, !tbaa !34
  %13 = call i32 @setresuid(i32 noundef -1, i32 noundef %11, i32 noundef %12) #27
  %14 = icmp slt i32 %13, 0
  br i1 %14, label %15, label %22

15:                                               ; preds = %10
  br label %16

16:                                               ; preds = %15
  call void @llvm.lifetime.start.p0(i64 4, ptr %4) #27
  %17 = call ptr @rb_errno_ptr()
  %18 = load i32, ptr %17, align 4, !tbaa !34
  store i32 %18, ptr %4, align 4, !tbaa !34
  %19 = load i32, ptr %4, align 4, !tbaa !34
  call void @rb_syserr_fail(i32 noundef %19, ptr noundef null) #30
  unreachable

20:                                               ; No predecessors!
  br label %21

21:                                               ; preds = %20
  br label %22

22:                                               ; preds = %21, %10
  %23 = load i32, ptr %2, align 4, !tbaa !34
  store i32 %23, ptr @SAVED_USER_ID, align 4, !tbaa !34
  br label %36

24:                                               ; preds = %1
  %25 = load i32, ptr %2, align 4, !tbaa !34
  %26 = call i32 @setresuid(i32 noundef -1, i32 noundef %25, i32 noundef -1) #27
  %27 = icmp slt i32 %26, 0
  br i1 %27, label %28, label %35

28:                                               ; preds = %24
  br label %29

29:                                               ; preds = %28
  call void @llvm.lifetime.start.p0(i64 4, ptr %5) #27
  %30 = call ptr @rb_errno_ptr()
  %31 = load i32, ptr %30, align 4, !tbaa !34
  store i32 %31, ptr %5, align 4, !tbaa !34
  %32 = load i32, ptr %5, align 4, !tbaa !34
  call void @rb_syserr_fail(i32 noundef %32, ptr noundef null) #30
  unreachable

33:                                               ; No predecessors!
  br label %34

34:                                               ; preds = %33
  br label %35

35:                                               ; preds = %34, %24
  br label %36

36:                                               ; preds = %35, %22
  %37 = load i32, ptr %2, align 4, !tbaa !34
  call void @llvm.lifetime.end.p0(i64 4, ptr %3) #27
  ret i32 %37
}