; Function Attrs: nounwind sspstrong uwtable
define internal fastcc noundef i32 @rb_seteuid_core(i32 noundef returned %0) unnamed_addr #1 {
  %.b.i = load i1, ptr @under_uid_switch, align 4
  br i1 %.b.i, label %2, label %check_uid_switch.exit

2:                                                ; preds = %1
  %3 = load i64, ptr @rb_eRuntimeError, align 8, !tbaa !43
  tail call void (i64, ptr, ...) @rb_raise(i64 noundef %3, ptr noundef nonnull @.str.228) #29
  unreachable

check_uid_switch.exit:                            ; preds = %1
  %4 = tail call i32 @getuid() #27
  %.not = icmp eq i32 %4, %0
  br i1 %.not, label %12, label %5

5:                                                ; preds = %check_uid_switch.exit
  %6 = tail call i32 @setresuid(i32 noundef -1, i32 noundef %0, i32 noundef %0) #27
  %7 = icmp slt i32 %6, 0
  br i1 %7, label %8, label %11

8:                                                ; preds = %5
  %9 = tail call ptr @rb_errno_ptr() #27
  %10 = load i32, ptr %9, align 4, !tbaa !60
  tail call void @rb_syserr_fail(i32 noundef %10, ptr noundef null) #29
  unreachable

11:                                               ; preds = %5
  store i32 %0, ptr @SAVED_USER_ID, align 4, !tbaa !60
  br label %18

12:                                               ; preds = %check_uid_switch.exit
  %13 = tail call i32 @setresuid(i32 noundef -1, i32 noundef %0, i32 noundef -1) #27
  %14 = icmp slt i32 %13, 0
  br i1 %14, label %15, label %18

15:                                               ; preds = %12
  %16 = tail call ptr @rb_errno_ptr() #27
  %17 = load i32, ptr %16, align 4, !tbaa !60
  tail call void @rb_syserr_fail(i32 noundef %17, ptr noundef null) #29
  unreachable

18:                                               ; preds = %12, %11
  ret i32 %0
}